; ModuleID = '49/198.c'
source_filename = "49/198.c"
target datalayout = "e-m:e-p270:32:32-p271:32:32-p272:64:64-i64:64-f80:128-n8:16:32:64-S128"
target triple = "x86_64-pc-linux-gnu"

@.str = private unnamed_addr constant [3 x i8] c"%c\00", align 1
@.str.1 = private unnamed_addr constant [2 x i8] c"\0A\00", align 1

; Function Attrs: noinline nounwind uwtable
define dso_local i32 @main() #0 {
  %1 = alloca i32, align 4
  %2 = alloca [505 x i8], align 16
  %3 = alloca i32, align 4
  %4 = alloca i32, align 4
  %5 = alloca i32, align 4
  store i32 0, i32* %1, align 4
  %6 = getelementptr inbounds [505 x i8], [505 x i8]* %2, i64 0, i64 0
  %7 = call i32 (i8*, ...) bitcast (i32 (...)* @gets to i32 (i8*, ...)*)(i8* %6)
  store i32 2, i32* %3, align 4
  br label %8

8:                                                ; preds = %82, %0
  %9 = load i32, i32* %3, align 4
  %10 = sext i32 %9 to i64
  %11 = getelementptr inbounds [505 x i8], [505 x i8]* %2, i64 0, i64 0
  %12 = call i64 @strlen(i8* %11) #3
  %13 = icmp ult i64 %10, %12
  br i1 %13, label %14, label %85

14:                                               ; preds = %8
  store i32 0, i32* %4, align 4
  br label %15

15:                                               ; preds = %78, %14
  %16 = load i32, i32* %4, align 4
  %17 = sext i32 %16 to i64
  %18 = getelementptr inbounds [505 x i8], [505 x i8]* %2, i64 0, i64 0
  %19 = call i64 @strlen(i8* %18) #3
  %20 = load i32, i32* %3, align 4
  %21 = sext i32 %20 to i64
  %22 = sub i64 %19, %21
  %23 = icmp ule i64 %17, %22
  br i1 %23, label %24, label %81

24:                                               ; preds = %15
  store i32 0, i32* %5, align 4
  br label %25

25:                                               ; preds = %50, %24
  %26 = load i32, i32* %5, align 4
  %27 = load i32, i32* %3, align 4
  %28 = icmp slt i32 %26, %27
  br i1 %28, label %29, label %53

29:                                               ; preds = %25
  %30 = load i32, i32* %5, align 4
  %31 = load i32, i32* %4, align 4
  %32 = add nsw i32 %30, %31
  %33 = sext i32 %32 to i64
  %34 = getelementptr inbounds [505 x i8], [505 x i8]* %2, i64 0, i64 %33
  %35 = load i8, i8* %34, align 1
  %36 = sext i8 %35 to i32
  %37 = load i32, i32* %3, align 4
  %38 = load i32, i32* %4, align 4
  %39 = add nsw i32 %37, %38
  %40 = sub nsw i32 %39, 1
  %41 = load i32, i32* %5, align 4
  %42 = sub nsw i32 %40, %41
  %43 = sext i32 %42 to i64
  %44 = getelementptr inbounds [505 x i8], [505 x i8]* %2, i64 0, i64 %43
  %45 = load i8, i8* %44, align 1
  %46 = sext i8 %45 to i32
  %47 = icmp ne i32 %36, %46
  br i1 %47, label %48, label %49

48:                                               ; preds = %29
  br label %53

49:                                               ; preds = %29
  br label %50

50:                                               ; preds = %49
  %51 = load i32, i32* %5, align 4
  %52 = add nsw i32 %51, 1
  store i32 %52, i32* %5, align 4
  br label %25

53:                                               ; preds = %48, %25
  %54 = load i32, i32* %5, align 4
  %55 = load i32, i32* %3, align 4
  %56 = icmp eq i32 %54, %55
  br i1 %56, label %57, label %77

57:                                               ; preds = %53
  %58 = load i32, i32* %4, align 4
  store i32 %58, i32* %5, align 4
  br label %59

59:                                               ; preds = %72, %57
  %60 = load i32, i32* %5, align 4
  %61 = load i32, i32* %3, align 4
  %62 = load i32, i32* %4, align 4
  %63 = add nsw i32 %61, %62
  %64 = icmp slt i32 %60, %63
  br i1 %64, label %65, label %75

65:                                               ; preds = %59
  %66 = load i32, i32* %5, align 4
  %67 = sext i32 %66 to i64
  %68 = getelementptr inbounds [505 x i8], [505 x i8]* %2, i64 0, i64 %67
  %69 = load i8, i8* %68, align 1
  %70 = sext i8 %69 to i32
  %71 = call i32 (i8*, ...) @printf(i8* getelementptr inbounds ([3 x i8], [3 x i8]* @.str, i64 0, i64 0), i32 %70)
  br label %72

72:                                               ; preds = %65
  %73 = load i32, i32* %5, align 4
  %74 = add nsw i32 %73, 1
  store i32 %74, i32* %5, align 4
  br label %59

75:                                               ; preds = %59
  %76 = call i32 (i8*, ...) @printf(i8* getelementptr inbounds ([2 x i8], [2 x i8]* @.str.1, i64 0, i64 0))
  br label %77

77:                                               ; preds = %75, %53
  br label %78

78:                                               ; preds = %77
  %79 = load i32, i32* %4, align 4
  %80 = add nsw i32 %79, 1
  store i32 %80, i32* %4, align 4
  br label %15

81:                                               ; preds = %15
  br label %82

82:                                               ; preds = %81
  %83 = load i32, i32* %3, align 4
  %84 = add nsw i32 %83, 1
  store i32 %84, i32* %3, align 4
  br label %8

85:                                               ; preds = %8
  ret i32 0
}

declare dso_local i32 @gets(...) #1

; Function Attrs: nounwind readonly
declare dso_local i64 @strlen(i8*) #2

declare dso_local i32 @printf(i8*, ...) #1


!llvm.module.flags = !{!0}
!llvm.ident = !{!1}

!0 = !{i32 1, !"wchar_size", i32 4}
!1 = !{!"clang version 10.0.0-4ubuntu1 "}
